LIBRARY XD_LUA
EXPORTS
luaL_addlstring
luaL_addstring
luaL_addvalue
luaL_argerror
luaL_buffinit
luaL_callmeta
luaL_checkany
luaL_checkinteger
luaL_checklstring
luaL_checknumber
luaL_checkoption
luaL_checkstack
luaL_checktype
luaL_checkudata
luaL_error
luaL_findtable
luaL_getmetafield
luaL_gsub
luaL_loadbuffer
luaL_loadfile
luaL_loadstring
luaL_newmetatable
luaL_newstate
luaL_openlib
luaL_openlibs
luaL_optinteger
luaL_optlstring
luaL_optnumber
luaL_prepbuffer
luaL_pushresult
luaL_ref
luaL_register
luaL_typerror
luaL_unref
luaL_where
lua_atpanic
lua_call
lua_checkstack
lua_close
lua_concat
lua_cpcall
lua_createtable
lua_dump
lua_equal
lua_error
lua_gc
lua_getallocf
lua_getfenv
lua_getfield
lua_gethook
lua_gethookcount
lua_gethookmask
lua_getinfo
lua_getlocal
lua_getmetatable
lua_getstack
lua_gettable
lua_gettop
lua_getupvalue
lua_insert
lua_iscfunction
lua_isnumber
lua_isstring
lua_isuserdata
lua_lessthan
lua_load
lua_newstate
lua_newthread
lua_newuserdata
lua_next
lua_objlen
lua_pcall
lua_pushboolean
lua_pushcclosure
lua_pushfstring
lua_pushinteger
lua_pushlightuserdata
lua_pushlstring
lua_pushnil
lua_pushnumber
lua_pushstring
lua_pushthread
lua_pushvalue
lua_pushvfstring
lua_rawequal
lua_rawget
lua_rawgeti
lua_rawset
lua_rawseti
lua_remove
lua_replace
lua_resume
lua_setallocf
lua_setfenv
lua_setfield
lua_sethook
lua_setlocal
lua_setmetatable
lua_settable
lua_settop
lua_setupvalue
lua_status
lua_toboolean
lua_tocfunction
lua_tointeger
lua_tolstring
lua_tonumber
lua_topointer
lua_tothread
lua_touserdata
lua_type
lua_typename
lua_xmove
lua_yield
luaopen_base
luaopen_debug
luaopen_io
luaopen_math
luaopen_os
luaopen_package
luaopen_string
luaopen_table
??0cast_failed@luabind@@QAE@ABV01@@Z
??0cast_failed@luabind@@QAE@PAUlua_State@@ABVtype_id@1@@Z
??0cast_graph@detail@luabind@@QAE@XZ
??0class_base@detail@luabind@@QAE@ABU012@@Z
??0class_base@detail@luabind@@QAE@PBD@Z
??0class_id_map@detail@luabind@@QAE@ABV012@@Z
??0class_id_map@detail@luabind@@QAE@XZ
??0class_info@luabind@@QAE@ABU01@@Z
??0class_info@luabind@@QAE@XZ
??0class_registry@detail@luabind@@QAE@ABU012@@Z
??0class_registry@detail@luabind@@QAE@PAUlua_State@@@Z
??0class_rep@detail@luabind@@QAE@ABV012@@Z
??0class_rep@detail@luabind@@QAE@ABVtype_id@2@PBDPAUlua_State@@@Z
??0class_rep@detail@luabind@@QAE@PAUlua_State@@PBD@Z
??0error@luabind@@QAE@ABV01@@Z
??0error@luabind@@QAE@PAUlua_State@@@Z
??0function_object@detail@luabind@@QAE@ABU012@@Z
??0function_object@detail@luabind@@QAE@P6AHPAUlua_State@@@Z@Z
??0invoke_context@detail@luabind@@QAE@XZ
??0module_@luabind@@QAE@PAUlua_State@@PBD@Z
??0namespace_@luabind@@QAE@ABV01@@Z
??0namespace_@luabind@@QAE@PBD@Z
??0object_rep@detail@luabind@@AAE@ABV012@@Z
??0object_rep@detail@luabind@@QAE@PAVinstance_holder@12@PAVclass_rep@12@@Z
??0registration@detail@luabind@@QAE@ABU012@@Z
??0registration@detail@luabind@@QAE@XZ
??0scope@luabind@@QAE@ABU01@@Z
??0scope@luabind@@QAE@V?$auto_ptr@Uregistration@detail@luabind@@@std@@@Z
??0scope@luabind@@QAE@XZ
??0weak_ref@luabind@@QAE@ABV01@@Z
??0weak_ref@luabind@@QAE@PAUlua_State@@0H@Z
??0weak_ref@luabind@@QAE@XZ
??1cast_failed@luabind@@UAE@XZ
??1cast_graph@detail@luabind@@QAE@XZ
??1class_base@detail@luabind@@QAE@XZ
??1class_id_map@detail@luabind@@QAE@XZ
??1class_info@luabind@@QAE@XZ
??1class_registry@detail@luabind@@QAE@XZ
??1class_rep@detail@luabind@@QAE@XZ
??1error@luabind@@UAE@XZ
??1function_object@detail@luabind@@UAE@XZ
??1namespace_@luabind@@QAE@XZ
??1object_rep@detail@luabind@@QAE@XZ
??1registration@detail@luabind@@UAE@XZ
??1scope@luabind@@QAE@XZ
??1weak_ref@luabind@@QAE@XZ
??4cast_failed@luabind@@QAEAAV01@ABV01@@Z
??4class_base@detail@luabind@@QAEAAU012@ABU012@@Z
??4class_id_map@detail@luabind@@QAEAAV012@ABV012@@Z
??4class_registry@detail@luabind@@QAEAAU012@ABU012@@Z
??4class_rep@detail@luabind@@QAEAAV012@ABV012@@Z
??4create_class@detail@luabind@@QAEAAU012@ABU012@@Z
??4error@luabind@@QAEAAV01@ABV01@@Z
??4function_object@detail@luabind@@QAEAAU012@ABU012@@Z
??4invoke_context@detail@luabind@@QAEAAU012@ABU012@@Z
??4module_@luabind@@QAEAAV01@ABV01@@Z
??4namespace_@luabind@@QAEAAV01@ABV01@@Z
??4object_rep@detail@luabind@@AAEXABV012@@Z
??4registration@detail@luabind@@QAEAAU012@ABU012@@Z
??4scope@luabind@@QAEAAU01@ABU01@@Z
??4weak_ref@luabind@@QAEAAV01@ABV01@@Z
??Amodule_@luabind@@QAEXUscope@1@@Z
??Anamespace_@luabind@@QAEAAV01@Uscope@1@@Z
??Binvoke_context@detail@luabind@@QBE_NXZ
??Qscope@luabind@@QAEAAU01@U01@@Z
?add_base@class_base@detail@luabind@@QAEXABVtype_id@3@P6APAXPAX@Z@Z
?add_base_class@class_rep@detail@luabind@@QAEXABUbase_info@123@@Z
?add_cast@class_base@detail@luabind@@QAEXIIP6APAXPAX@Z@Z
?add_class@class_registry@detail@luabind@@QAEXABVtype_id@3@PAVclass_rep@23@@Z
?add_default_member@class_base@detail@luabind@@QAEXPAUregistration@23@@Z
?add_dependency@object_rep@detail@luabind@@QAEXPAUlua_State@@H@Z
?add_inner_scope@class_base@detail@luabind@@QAEXAAUscope@3@@Z
?add_member@class_base@detail@luabind@@QAEXPAUregistration@23@@Z
?add_overload@detail@luabind@@YAXABVobject@adl@2@PBD0@Z
?add_static_constant@class_base@detail@luabind@@QAEXPBDH@Z
?allocate@class_rep@detail@luabind@@QBE?AU?$pair@PAXPAX@std@@PAUlua_State@@@Z
?allocate@object_rep@detail@luabind@@QAEPAXI@Z
?allocate_class_id@detail@luabind@@YAIABVtype_id@2@@Z
?bases@class_rep@detail@luabind@@QBEABV?$vector@Ubase_info@class_rep@detail@luabind@@V?$allocator@Ubase_info@class_rep@detail@luabind@@@std@@@std@@XZ
?bind_class_info@luabind@@YAXPAUlua_State@@@Z
?cache_operators@class_rep@detail@luabind@@AAEXPAUlua_State@@@Z
?cast@cast_graph@detail@luabind@@QBE?AU?$pair@PAXH@std@@PAXIIIPBX@Z
?casts@class_rep@detail@luabind@@QBEABVcast_graph@23@XZ
?classes@class_rep@detail@luabind@@QBEABVclass_id_map@23@XZ
?constructor_dispatcher@class_rep@detail@luabind@@SAHPAUlua_State@@@Z
?cpp_class@class_registry@detail@luabind@@QBEHXZ
?cpp_instance@class_registry@detail@luabind@@QBEHXZ
?crep@object_rep@detail@luabind@@QAEPAVclass_rep@23@XZ
?crep@object_rep@detail@luabind@@QBEPBVclass_rep@23@XZ
?deallocate@object_rep@detail@luabind@@QAEXPAX@Z
?disable_super_deprecation@luabind@@YAXXZ
?do_call_member_selection@detail@luabind@@YAXPAUlua_State@@PBD@Z
?find_class@class_registry@detail@luabind@@QBEPAVclass_rep@23@ABVtype_id@3@@Z
?format_error@invoke_context@detail@luabind@@QBEXPAUlua_State@@PBUfunction_object@23@@Z
?get@class_id_map@detail@luabind@@QBEIABVtype_id@3@@Z
?get@weak_ref@luabind@@QBEXPAUlua_State@@@Z
?get_class_info@luabind@@YA?AUclass_info@1@ABVargument@adl@1@@Z
?get_class_name@detail@luabind@@YA?AV?$basic_string@DU?$char_traits@D@std@@V?$allocator@D@2@@std@@PAUlua_State@@ABVtype_id@2@@Z
?get_class_names@luabind@@YA?AVobject@adl@1@PAUlua_State@@@Z
?get_class_type@class_rep@detail@luabind@@QBE?AW4class_type@123@XZ
?get_classes@class_registry@detail@luabind@@QBEABV?$map@Vtype_id@luabind@@PAVclass_rep@detail@2@U?$less@Vtype_id@luabind@@@std@@V?$allocator@U?$pair@$$CBVtype_id@luabind@@PAVclass_rep@detail@2@@std@@@6@@std@@XZ
?get_default_table@class_rep@detail@luabind@@QBEXPAUlua_State@@@Z
?get_instance@detail@luabind@@YAPAVobject_rep@12@PAUlua_State@@H@Z
?get_instance@object_rep@detail@luabind@@QBE?AU?$pair@PAXH@std@@I@Z
?get_local@class_id_map@detail@luabind@@QAEIABVtype_id@3@@Z
?get_main_thread@luabind@@YAPAUlua_State@@PAU2@@Z
?get_pcall_callback@luabind@@YAP6AHPAUlua_State@@@ZXZ
?get_registry@class_registry@detail@luabind@@SAPAU123@PAUlua_State@@@Z
?get_table@class_rep@detail@luabind@@QBEXPAUlua_State@@@Z
?get_weak_table@luabind@@YAXPAUlua_State@@@Z
?handle_exception_aux@detail@luabind@@YAXPAUlua_State@@@Z
?has_operator_in_lua@class_rep@detail@luabind@@QAE_NPAUlua_State@@H@Z
?id@weak_ref@luabind@@QBEHXZ
?info@cast_failed@luabind@@QBE?AVtype_id@2@XZ
?init@class_base@detail@luabind@@QAEXABVtype_id@3@I0I@Z
?insert@cast_graph@detail@luabind@@QAEXIIP6APAXPAX@Z@Z
?is_const@object_rep@detail@luabind@@QBE_NXZ
?is_luabind_function@detail@luabind@@YA_NPAUlua_State@@H@Z
?local_id_base@class_id_map@detail@luabind@@0IB
?lua_class@class_registry@detail@luabind@@QBEHXZ
?lua_function@class_registry@detail@luabind@@QBEHXZ
?lua_instance@class_registry@detail@luabind@@QBEHXZ
?lua_settable_dispatcher@class_rep@detail@luabind@@SAHPAUlua_State@@@Z
?make_function_aux@detail@luabind@@YA?AVobject@adl@2@PAUlua_State@@PAUfunction_object@12@@Z
?metatable_ref@class_rep@detail@luabind@@QBEHXZ
?name@class_base@detail@luabind@@QBEPBDXZ
?name@class_rep@detail@luabind@@QBEPBDXZ
?nil@luabind@@3Unil_type@detail@1@A
?no_error_checking_not_defined_conflict@detail@luabind@@YAXXZ
?not_threadsafe_not_defined_conflict@detail@luabind@@YAXXZ
?open@luabind@@YAXPAUlua_State@@@Z
?pcall@detail@luabind@@YAHPAUlua_State@@HH@Z
?property_tag@detail@luabind@@YAHPAUlua_State@@@Z
?push_instance_metatable@detail@luabind@@YAXPAUlua_State@@@Z
?push_new_instance@detail@luabind@@YAPAVobject_rep@12@PAUlua_State@@PAVclass_rep@12@@Z
?put@class_id_map@detail@luabind@@QAEXIABVtype_id@3@@Z
?register_@scope@luabind@@QBEXPAUlua_State@@@Z
?register_exception_handler@detail@luabind@@YAXPAUexception_handler_base@12@@Z
?release@object_rep@detail@luabind@@QAEXXZ
?release_dependency_refs@object_rep@detail@luabind@@QAEXPAUlua_State@@@Z
?resume_impl@detail@luabind@@YAHPAUlua_State@@HH@Z
?set_instance@object_rep@detail@luabind@@QAEXPAVinstance_holder@23@@Z
?set_pcall_callback@luabind@@YAXP6AHPAUlua_State@@@Z@Z
?set_type@class_rep@detail@luabind@@QAEXABVtype_id@3@@Z
?stack_content_by_name@detail@luabind@@YA?AV?$basic_string@DU?$char_traits@D@std@@V?$allocator@D@2@@std@@PAUlua_State@@H@Z
?stage1@create_class@detail@luabind@@SAHPAUlua_State@@@Z
?stage2@create_class@detail@luabind@@SAHPAUlua_State@@@Z
?state@cast_failed@luabind@@QBEPAUlua_State@@XZ
?state@error@luabind@@QBEPAUlua_State@@XZ
?state@weak_ref@luabind@@QBEPAUlua_State@@XZ
?static_class_gettable@class_rep@detail@luabind@@SAHPAUlua_State@@@Z
?super_callback@class_rep@detail@luabind@@SAHPAUlua_State@@@Z
?swap@weak_ref@luabind@@QAEXAAV12@@Z
?try_next@exception_handler_base@detail@luabind@@QBEXPAUlua_State@@@Z
?type@class_rep@detail@luabind@@QBEABVtype_id@3@XZ
?what@cast_failed@luabind@@UBEPBDXZ
?what@error@luabind@@UBEPBDXZ
